; Function Attrs: mustprogress nofree norecurse nosync nounwind willreturn memory(argmem: write) uwtable
define hidden void @_ZN16EllipticKeyPointC2Ev(ptr nocapture noundef nonnull writeonly align 8 dereferenceable(56) %0) unnamed_addr #0 align 2 {
_ZN16EllipticKeyPointC2ERKN2cv6Point_IfEERKNS0_7Scalar_IdEE.exit:
  %1 = getelementptr inbounds i8, ptr %0, i64 8
  %2 = getelementptr inbounds i8, ptr %0, i64 40
  store i64 0, ptr %0, align 8
  store <2 x double> <double 1.000000e+00, double 0.000000e+00>, ptr %1, align 8
  %3 = getelementptr inbounds i8, ptr %0, i64 24
  store <2 x double> <double 1.000000e+00, double 0.000000e+00>, ptr %3, align 8
  store <4 x float> <float 1.000000e+00, float 1.000000e+00, float 1.000000e+00, float 1.000000e+00>, ptr %2, align 8
  ret void
}